; Function Attrs: null_pointer_is_valid sspstrong uwtable
define internal i32 @butc_dissect_BUTC_ScanStatus_response(ptr noundef %0, i32 noundef %1, ptr noundef %2, ptr noundef %3, ptr noundef %4, ptr noundef %5) #0 {
  %7 = tail call i32 @dissect_ndr_toplevel_pointer(ptr noundef %0, i32 noundef %1, ptr noundef %2, ptr noundef %3, ptr noundef %4, ptr noundef %5, ptr noundef nonnull @butc_dissect_BUTC_ScanStatus_taskId, i32 noundef 1, ptr noundef nonnull @.str.160, i32 noundef -1)
  %8 = tail call i32 @dissect_deferred_pointers(ptr noundef %2, ptr noundef %0, i32 noundef %7, ptr noundef %4, ptr noundef %5)
  %9 = tail call i32 @dissect_ndr_toplevel_pointer(ptr noundef %0, i32 noundef %8, ptr noundef %2, ptr noundef %3, ptr noundef %4, ptr noundef %5, ptr noundef nonnull @butc_dissect_BUTC_ScanStatus_statusPtr, i32 noundef 1, ptr noundef nonnull @.str.188, i32 noundef -1)
  %10 = tail call i32 @dissect_deferred_pointers(ptr noundef %2, ptr noundef %0, i32 noundef %9, ptr noundef %4, ptr noundef %5)
  %11 = tail call i32 @dissect_ndr_toplevel_pointer(ptr noundef %0, i32 noundef %10, ptr noundef %2, ptr noundef %3, ptr noundef %4, ptr noundef %5, ptr noundef nonnull @butc_dissect_BUTC_ScanStatus_flags, i32 noundef 1, ptr noundef nonnull @.str.45, i32 noundef -1)
  %12 = tail call i32 @dissect_deferred_pointers(ptr noundef %2, ptr noundef %0, i32 noundef %11, ptr noundef %4, ptr noundef %5)
  %13 = load i32, ptr @hf_butc_rc, align 4
  %14 = tail call i32 @dissect_ntstatus(ptr noundef %0, i32 noundef %12, ptr noundef %2, ptr noundef %3, ptr noundef %4, ptr noundef %5, i32 noundef %13, ptr noundef null)
  ret i32 %14
}